target datalayout = "e-m:e-p270:32:32-p271:32:32-p272:64:64-i64:64-i128:128-f80:128-n8:16:32:64-S128"
target triple = "x86_64-pc-linux-gnu"

%struct._address = type { i32, i32, ptr, ptr }

@.str.1145 = private unnamed_addr constant [10 x i8] c"Broadcast\00", align 1

; Function Attrs: inlinehint nounwind null_pointer_is_valid sspstrong uwtable
define internal zeroext i16 @pletoh16(ptr noundef %0) #4 {
  %2 = alloca ptr, align 8
  store ptr %0, ptr %2, align 8
  %3 = load ptr, ptr %2, align 8
  %4 = getelementptr i8, ptr %3, i64 1
  %5 = load i8, ptr %4, align 1
  %6 = zext i8 %5 to i16
  %7 = zext i16 %6 to i32
  %8 = shl i32 %7, 8
  %9 = load ptr, ptr %2, align 8
  %10 = getelementptr i8, ptr %9, i64 0
  %11 = load i8, ptr %10, align 1
  %12 = zext i8 %11 to i16
  %13 = zext i16 %12 to i32
  %14 = shl i32 %13, 0
  %15 = or i32 %8, %14
  %16 = trunc i32 %15 to i16
  ret i16 %16
}

; Function Attrs: null_pointer_is_valid sspstrong uwtable
define internal i32 @ieee802_15_4_short_address_to_str(ptr noundef %0, ptr noundef %1, i32 noundef %2) #0 {
  %4 = alloca i32, align 4
  %5 = alloca ptr, align 8
  %6 = alloca ptr, align 8
  %7 = alloca i32, align 4
  %8 = alloca i16, align 2
  %9 = alloca i32, align 4
  store ptr %0, ptr %5, align 8
  store ptr %1, ptr %6, align 8
  store i32 %2, ptr %7, align 4
  call void @llvm.lifetime.start.p0(i64 2, ptr %8) #17
  %10 = load ptr, ptr %5, align 8
  %11 = getelementptr inbounds nuw %struct._address, ptr %10, i32 0, i32 2
  %12 = load ptr, ptr %11, align 8
  %13 = call zeroext i16 @pletoh16(ptr noundef %12)
  store i16 %13, ptr %8, align 2
  %14 = load i16, ptr %8, align 2
  %15 = zext i16 %14 to i32
  %16 = icmp eq i32 %15, 65535
  br i1 %16, label %17, label %22

17:                                               ; preds = %3
  %18 = load ptr, ptr %6, align 8
  %19 = load i32, ptr %7, align 4
  %20 = sext i32 %19 to i64
  %21 = call i64 @g_strlcpy(ptr noundef %18, ptr noundef @.str.1145, i64 noundef %20)
  store i32 10, ptr %4, align 4
  store i32 1, ptr %9, align 4
  br label %31

22:                                               ; preds = %3
  %23 = load ptr, ptr %6, align 8
  %24 = getelementptr i8, ptr %23, i32 1
  store ptr %24, ptr %6, align 8
  store i8 48, ptr %23, align 1
  %25 = load ptr, ptr %6, align 8
  %26 = getelementptr i8, ptr %25, i32 1
  store ptr %26, ptr %6, align 8
  store i8 120, ptr %25, align 1
  %27 = load ptr, ptr %6, align 8
  %28 = load i16, ptr %8, align 2
  %29 = call ptr @word_to_hex(ptr noundef %27, i16 noundef zeroext %28)
  store ptr %29, ptr %6, align 8
  %30 = load ptr, ptr %6, align 8
  store i8 0, ptr %30, align 1
  store i32 7, ptr %4, align 4
  store i32 1, ptr %9, align 4
  br label %31

31:                                               ; preds = %22, %17
  call void @llvm.lifetime.end.p0(i64 2, ptr %8) #17
  %32 = load i32, ptr %4, align 4
  ret i32 %32
}